; Function Attrs: nounwind uwtable
define internal noundef i32 @pop3_get_message(ptr noundef readonly captures(none) %0, ptr noundef %1) #0 {
  %3 = getelementptr inbounds nuw i8, ptr %0, i64 24
  %4 = load ptr, ptr %3, align 8, !tbaa !83
  %5 = getelementptr inbounds nuw i8, ptr %4, i64 1184
  %6 = tail call ptr @Curl_dyn_ptr(ptr noundef nonnull %5) #6
  %7 = load ptr, ptr %3, align 8, !tbaa !83
  %8 = getelementptr inbounds nuw i8, ptr %7, i64 1224
  %9 = load i64, ptr %8, align 8, !tbaa !7
  %10 = icmp ugt i64 %9, 2
  br i1 %10, label %11, label %23

11:                                               ; preds = %2
  %12 = add i64 %9, -2
  %13 = getelementptr inbounds nuw i8, ptr %6, i64 2
  br label %14

14:                                               ; preds = %.critedge, %11
  %.023 = phi ptr [ %13, %11 ], [ %16, %.critedge ]
  %.0 = phi i64 [ %12, %11 ], [ %17, %.critedge ]
  %15 = load i8, ptr %.023, align 1, !tbaa !7
  switch i8 %15, label %.preheader [
    i8 32, label %.critedge
    i8 9, label %.critedge
  ]

.preheader:                                       ; preds = %14
  %.not31 = icmp eq i64 %.0, 0
  br i1 %.not31, label %._crit_edge, label %.lr.ph

.critedge:                                        ; preds = %14, %14
  %16 = getelementptr inbounds nuw i8, ptr %.023, i64 1
  %17 = add i64 %.0, -1
  br label %14, !llvm.loop !142

.lr.ph:                                           ; preds = %.preheader, %21
  %.132 = phi i64 [ %18, %21 ], [ %.0, %.preheader ]
  %18 = add i64 %.132, -1
  %19 = getelementptr inbounds nuw i8, ptr %.023, i64 %18
  %20 = load i8, ptr %19, align 1, !tbaa !7
  switch i8 %20, label %._crit_edge [
    i8 13, label %21
    i8 10, label %21
    i8 32, label %21
    i8 9, label %21
  ]

21:                                               ; preds = %.lr.ph, %.lr.ph, %.lr.ph, %.lr.ph
  %.not = icmp eq i64 %18, 0
  br i1 %.not, label %._crit_edge, label %.lr.ph, !llvm.loop !143

._crit_edge:                                      ; preds = %21, %.lr.ph, %.preheader
  %.1.lcssa = phi i64 [ 0, %.preheader ], [ %.132, %.lr.ph ], [ 0, %21 ]
  %22 = getelementptr inbounds nuw i8, ptr %.023, i64 %.1.lcssa
  store i8 0, ptr %22, align 1, !tbaa !7
  tail call void @Curl_bufref_set(ptr noundef %1, ptr noundef nonnull %.023, i64 noundef %.1.lcssa, ptr noundef null) #6
  br label %24

23:                                               ; preds = %2
  tail call void @Curl_bufref_set(ptr noundef %1, ptr noundef nonnull @.str.13, i64 noundef 0, ptr noundef null) #6
  br label %24

24:                                               ; preds = %23, %._crit_edge
  ret i32 0
}